(dp1
S'date'
p2
cdatetime
datetime
p3
(S'\x07\xdb\x01\x18\x01\x00\x00\x00\x00\x00'
tRp4
sS'message'
p5
VHello World!\u000a
p6
sS'id'
p7
ccopy_reg
_reconstructor
p8
(cuuid
UUID
p9
c__builtin__
object
p10
NtRp11
(dp12
S'int'
p13
L291893784154234951545747261957173395530L
sbs.